; Function Attrs: nounwind uwtable
define void @Kit_DsdPrintExpanded(ptr noundef %0) local_unnamed_addr #0 {
  %2 = tail call ptr @Kit_DsdExpand(ptr noundef %0)
  %3 = load ptr, ptr @stdout, align 8, !tbaa !54
  %4 = tail call i64 @fwrite(ptr nonnull @.str.8, i64 4, i64 1, ptr %3)
  %5 = getelementptr inbounds nuw i8, ptr %2, i64 6
  %6 = load i16, ptr %5, align 2, !tbaa !51
  %7 = and i16 %6, 1
  %.not.i = icmp eq i16 %7, 0
  br i1 %.not.i, label %Kit_DsdPrint.exit, label %8

8:                                                ; preds = %1
  %fputc.i = tail call i32 @fputc(i32 33, ptr %3)
  %.pre.i = load i16, ptr %5, align 2, !tbaa !51
  br label %Kit_DsdPrint.exit

Kit_DsdPrint.exit:                                ; preds = %1, %8
  %9 = phi i16 [ %.pre.i, %8 ], [ %6, %1 ]
  %10 = lshr i16 %9, 1
  %11 = zext nneg i16 %10 to i32
  tail call void @Kit_DsdPrint_rec(ptr noundef %3, ptr noundef nonnull readonly %2, i32 noundef %11)
  tail call void @Kit_DsdNtkFree(ptr noundef nonnull %2)
  ret void
}